LIBRARY Qt5OpenGL
EXPORTS
    ??0QGL2PaintEngineEx@@QEAA@XZ
    ??0QGLBuffer@@QEAA@AEBV0@@Z
    ??0QGLBuffer@@QEAA@W4Type@0@@Z
    ??0QGLBuffer@@QEAA@XZ
    ??0QGLColormap@@QEAA@AEBV0@@Z
    ??0QGLColormap@@QEAA@XZ
    ??0QGLContext@@AEAA@PEAVQOpenGLContext@@@Z
    ??0QGLContext@@QEAA@AEBVQGLFormat@@@Z
    ??0QGLContext@@QEAA@AEBVQGLFormat@@PEAVQPaintDevice@@@Z
    ??0QGLCustomShaderStage@@QEAA@AEBV0@@Z
    ??0QGLCustomShaderStage@@QEAA@XZ
    ??0QGLEngineShaderManager@@QEAA@PEAVQGLContext@@@Z
    ??0QGLEngineSharedShaders@@QEAA@AEBV0@@Z
    ??0QGLEngineSharedShaders@@QEAA@PEBVQGLContext@@@Z
    ??0QGLFormat@@QEAA@AEBV0@@Z
    ??0QGLFormat@@QEAA@V?$QFlags@W4FormatOption@QGL@@@@H@Z
    ??0QGLFormat@@QEAA@XZ
    ??0QGLFramebufferObject@@QEAA@AEBVQSize@@AEBVQGLFramebufferObjectFormat@@@Z
    ??0QGLFramebufferObject@@QEAA@AEBVQSize@@I@Z
    ??0QGLFramebufferObject@@QEAA@AEBVQSize@@W4Attachment@0@II@Z
    ??0QGLFramebufferObject@@QEAA@HHAEBVQGLFramebufferObjectFormat@@@Z
    ??0QGLFramebufferObject@@QEAA@HHI@Z
    ??0QGLFramebufferObject@@QEAA@HHW4Attachment@0@II@Z
    ??0QGLFramebufferObjectFormat@@QEAA@AEBV0@@Z
    ??0QGLFramebufferObjectFormat@@QEAA@XZ
    ??0QGLFunctions@@QEAA@PEBVQGLContext@@@Z
    ??0QGLFunctions@@QEAA@XZ
    ??0QGLPaintDevice@@QEAA@XZ
    ??0QGLPixelBuffer@@QEAA@AEBVQSize@@AEBVQGLFormat@@PEAVQGLWidget@@@Z
    ??0QGLPixelBuffer@@QEAA@HHAEBVQGLFormat@@PEAVQGLWidget@@@Z
    ??0QGLShader@@QEAA@V?$QFlags@W4ShaderTypeBit@QGLShader@@@@PEAVQObject@@@Z
    ??0QGLShader@@QEAA@V?$QFlags@W4ShaderTypeBit@QGLShader@@@@PEBVQGLContext@@PEAVQObject@@@Z
    ??0QGLShaderProgram@@QEAA@PEAVQObject@@@Z
    ??0QGLShaderProgram@@QEAA@PEBVQGLContext@@PEAVQObject@@@Z
    ??0QGLShareContextScope@@QEAA@PEBVQGLContext@@@Z
    ??0QGLSignalProxy@@QEAA@XZ
    ??0QGLTextureGlyphCache@@QEAA@AEBV0@@Z
    ??0QGLTextureGlyphCache@@QEAA@W4GlyphFormat@QFontEngine@@AEBVQTransform@@@Z
    ??0QGLWidget@@IEAA@AEAVQGLWidgetPrivate@@AEBVQGLFormat@@PEAVQWidget@@PEBV0@V?$QFlags@W4WindowType@Qt@@@@@Z
    ??0QGLWidget@@QEAA@AEBVQGLFormat@@PEAVQWidget@@PEBV0@V?$QFlags@W4WindowType@Qt@@@@@Z
    ??0QGLWidget@@QEAA@PEAVQGLContext@@PEAVQWidget@@PEBV0@V?$QFlags@W4WindowType@Qt@@@@@Z
    ??0QGLWidget@@QEAA@PEAVQWidget@@PEBV0@V?$QFlags@W4WindowType@Qt@@@@@Z
    ??0QGLWidgetGLPaintDevice@@QEAA@XZ
    ??0QGLWidgetPrivate@@QEAA@XZ
    ??0QGraphicsShaderEffect@@QEAA@PEAVQObject@@@Z
    ??1QGL2PaintEngineEx@@UEAA@XZ
    ??1QGLBuffer@@QEAA@XZ
    ??1QGLColormap@@QEAA@XZ
    ??1QGLContext@@UEAA@XZ
    ??1QGLCustomShaderStage@@UEAA@XZ
    ??1QGLEngineShaderManager@@UEAA@XZ
    ??1QGLEngineSharedShaders@@QEAA@XZ
    ??1QGLFormat@@QEAA@XZ
    ??1QGLFramebufferObject@@UEAA@XZ
    ??1QGLFramebufferObjectFormat@@QEAA@XZ
    ??1QGLFunctions@@QEAA@XZ
    ??1QGLPaintDevice@@UEAA@XZ
    ??1QGLPixelBuffer@@UEAA@XZ
    ??1QGLShader@@UEAA@XZ
    ??1QGLShaderProgram@@UEAA@XZ
    ??1QGLShareContextScope@@QEAA@XZ
    ??1QGLSignalProxy@@UEAA@XZ
    ??1QGLTextureGlyphCache@@UEAA@XZ
    ??1QGLWidget@@UEAA@XZ
    ??1QGLWidgetGLPaintDevice@@UEAA@XZ
    ??1QGLWidgetPrivate@@UEAA@XZ
    ??1QGraphicsShaderEffect@@UEAA@XZ
    ??4QGLBuffer@@QEAAAEAV0@AEBV0@@Z
    ??4QGLColormap@@QEAAAEAV0@AEBV0@@Z
    ??4QGLCustomShaderStage@@QEAAAEAV0@AEBV0@@Z
    ??4QGLEngineSharedShaders@@QEAAAEAV0@AEBV0@@Z
    ??4QGLFormat@@QEAAAEAV0@AEBV0@@Z
    ??4QGLFramebufferObjectFormat@@QEAAAEAV0@AEBV0@@Z
    ??4QGLFunctions@@QEAAAEAV0@AEBV0@@Z
    ??4QGLShareContextScope@@QEAAAEAV0@AEBV0@@Z
    ??4QGLTextureDestroyer@@QEAAAEAV0@$$QEAV0@@Z
    ??4QGLTextureDestroyer@@QEAAAEAV0@AEBV0@@Z
    ??6@YA?AVQDebug@@V0@AEBVQGLFormat@@@Z
    ??8@YA_NAEBVQGLFormat@@0@Z
    ??8QGLFramebufferObjectFormat@@QEBA_NAEBV0@@Z
    ??9@YA_NAEBVQGLFormat@@0@Z
    ??9QGLFramebufferObjectFormat@@QEBA_NAEBV0@@Z
    ??BQGLShareContextScope@@QEAAPEAVQGLContext@@XZ
    ??CQGLShareContextScope@@QEAAPEAVQGLContext@@XZ
    ??_7QGL2PaintEngineEx@@6B@
    ??_7QGLContext@@6B@
    ??_7QGLCustomShaderStage@@6B@
    ??_7QGLEngineShaderManager@@6B@
    ??_7QGLFramebufferObject@@6B@
    ??_7QGLPaintDevice@@6B@
    ??_7QGLPixelBuffer@@6B@
    ??_7QGLShader@@6B@
    ??_7QGLShaderProgram@@6B@
    ??_7QGLSignalProxy@@6B@
    ??_7QGLTextureGlyphCache@@6B@
    ??_7QGLWidget@@6BQObject@@@
    ??_7QGLWidget@@6BQPaintDevice@@@
    ??_7QGLWidgetGLPaintDevice@@6B@
    ??_7QGLWidgetPrivate@@6B@
    ??_7QGraphicsShaderEffect@@6B@
    ??_FQGLShaderProgram@@QEAAXXZ
    ??_FQGLWidget@@QEAAXXZ
    ??_FQGraphicsShaderEffect@@QEAAXXZ
    ?aboutToDestroy@QGLWidgetPrivate@@UEAAXXZ
    ?aboutToDestroyContext@QGLSignalProxy@@QEAAXPEBVQGLContext@@@Z
    ?accum@QGLFormat@@QEBA_NXZ
    ?accumBufferSize@QGLFormat@@QEBAHXZ
    ?addShader@QGLShaderProgram@@QEAA_NPEAVQGLShader@@@Z
    ?addShaderFromSourceCode@QGLShaderProgram@@QEAA_NV?$QFlags@W4ShaderTypeBit@QGLShader@@@@AEBVQByteArray@@@Z
    ?addShaderFromSourceCode@QGLShaderProgram@@QEAA_NV?$QFlags@W4ShaderTypeBit@QGLShader@@@@AEBVQString@@@Z
    ?addShaderFromSourceCode@QGLShaderProgram@@QEAA_NV?$QFlags@W4ShaderTypeBit@QGLShader@@@@PEBD@Z
    ?addShaderFromSourceFile@QGLShaderProgram@@QEAA_NV?$QFlags@W4ShaderTypeBit@QGLShader@@@@AEBVQString@@@Z
    ?allocate@QGLBuffer@@QEAAXH@Z
    ?allocate@QGLBuffer@@QEAAXPEBXH@Z
    ?alpha@QGLFormat@@QEBA_NXZ
    ?alphaBufferSize@QGLFormat@@QEBAHXZ
    ?alphaRequested@QGLPaintDevice@@UEBA_NXZ
    ?areSharing@QGLContext@@SA_NPEBV1@0@Z
    ?attachment@QGLFramebufferObject@@QEBA?AW4Attachment@1@XZ
    ?attachment@QGLFramebufferObjectFormat@@QEBA?AW4Attachment@QGLFramebufferObject@@XZ
    ?attributeLocation@QGLShaderProgram@@QEBAHAEBVQByteArray@@@Z
    ?attributeLocation@QGLShaderProgram@@QEBAHAEBVQString@@@Z
    ?attributeLocation@QGLShaderProgram@@QEBAHPEBD@Z
    ?autoBufferSwap@QGLWidget@@IEBA_NXZ
    ?begin@QGL2PaintEngineEx@@UEAA_NPEAVQPaintDevice@@@Z
    ?beginNativePainting@QGL2PaintEngineEx@@UEAAXXZ
    ?beginPaint@QGLPaintDevice@@UEAAXXZ
    ?beginPaint@QGLWidgetGLPaintDevice@@UEAAXXZ
    ?bind@QGLBuffer@@QEAA_NXZ
    ?bind@QGLFramebufferObject@@QEAA_NXZ
    ?bind@QGLShaderProgram@@QEAA_NXZ
    ?bindAttributeLocation@QGLShaderProgram@@QEAAXAEBVQByteArray@@H@Z
    ?bindAttributeLocation@QGLShaderProgram@@QEAAXAEBVQString@@H@Z
    ?bindAttributeLocation@QGLShaderProgram@@QEAAXPEBDH@Z
    ?bindDefault@QGLFramebufferObject@@SA_NXZ
    ?bindTexture@QGLContext@@QEAAIAEBVQImage@@IH@Z
    ?bindTexture@QGLContext@@QEAAIAEBVQImage@@IHV?$QFlags@W4BindOption@QGLContext@@@@@Z
    ?bindTexture@QGLContext@@QEAAIAEBVQPixmap@@IH@Z
    ?bindTexture@QGLContext@@QEAAIAEBVQPixmap@@IHV?$QFlags@W4BindOption@QGLContext@@@@@Z
    ?bindTexture@QGLContext@@QEAAIAEBVQString@@@Z
    ?bindTexture@QGLPixelBuffer@@QEAAIAEBVQImage@@I@Z
    ?bindTexture@QGLPixelBuffer@@QEAAIAEBVQPixmap@@I@Z
    ?bindTexture@QGLPixelBuffer@@QEAAIAEBVQString@@@Z
    ?bindTexture@QGLWidget@@QEAAIAEBVQImage@@IH@Z
    ?bindTexture@QGLWidget@@QEAAIAEBVQImage@@IHV?$QFlags@W4BindOption@QGLContext@@@@@Z
    ?bindTexture@QGLWidget@@QEAAIAEBVQPixmap@@IH@Z
    ?bindTexture@QGLWidget@@QEAAIAEBVQPixmap@@IHV?$QFlags@W4BindOption@QGLContext@@@@@Z
    ?bindTexture@QGLWidget@@QEAAIAEBVQString@@@Z
    ?bindToDynamicTexture@QGLPixelBuffer@@QEAA_NI@Z
    ?blitFramebuffer@QGLFramebufferObject@@SAXPEAV1@AEBVQRect@@01II@Z
    ?blitProgram@QGLEngineShaderManager@@QEAAPEAVQGLShaderProgram@@XZ
    ?blitProgram@QGLEngineSharedShaders@@QEAAPEAVQGLShaderProgram@@XZ
    ?blueBufferSize@QGLFormat@@QEBAHXZ
    ?brushChanged@QGL2PaintEngineEx@@UEAAXXZ
    ?brushOriginChanged@QGL2PaintEngineEx@@UEAAXXZ
    ?bufferId@QGLBuffer@@QEBAIXZ
    ?chooseContext@QGLContext@@MEAA_NPEBV1@@Z
    ?cleanup@QGLColormap@@CAXPEAUQGLColormapData@1@@Z
    ?cleanupColormaps@QGLWidgetPrivate@@QEAAXXZ
    ?cleanupCustomStage@QGLEngineSharedShaders@@QEAAXPEAVQGLCustomShaderStage@@@Z
    ?clear@QGLTextureGlyphCache@@QEAAXXZ
    ?clip@QGL2PaintEngineEx@@UEAAXAEBVQVectorPath@@W4ClipOperation@Qt@@@Z
    ?clipEnabledChanged@QGL2PaintEngineEx@@UEAAXXZ
    ?colorIndex@QGLContext@@IEBAIAEBVQColor@@@Z
    ?colormap@QGLWidget@@QEBAAEBVQGLColormap@@XZ
    ?compileSourceCode@QGLShader@@QEAA_NAEBVQByteArray@@@Z
    ?compileSourceCode@QGLShader@@QEAA_NAEBVQString@@@Z
    ?compileSourceCode@QGLShader@@QEAA_NPEBD@Z
    ?compileSourceFile@QGLShader@@QEAA_NAEBVQString@@@Z
    ?compositionModeChanged@QGL2PaintEngineEx@@UEAAXXZ
    ?context@QGLPixelBuffer@@QEBAPEAVQGLContext@@XZ
    ?context@QGLWidget@@QEBAPEAVQGLContext@@XZ
    ?context@QGLWidgetGLPaintDevice@@UEBAPEAVQGLContext@@XZ
    ?contextGroup@QGLTextureGlyphCache@@QEBAPEBVQOpenGLContextGroup@@XZ
    ?contextHandle@QGLContext@@QEBAPEAVQOpenGLContext@@XZ
    ?convertToGLFormat@QGLWidget@@SA?AVQImage@@AEBV2@@Z
    ?create@QGLBuffer@@QEAA_NXZ
    ?create@QGLContext@@UEAA_NPEBV1@@Z
    ?createState@QGL2PaintEngineEx@@UEBAPEAVQPainterState@@PEAV2@@Z
    ?createTextureData@QGLTextureGlyphCache@@UEAAXHH@Z
    ?currentContext@QGLContext@@SAPEBV1@XZ
    ?currentCtx@QGLContext@@1PEAV1@EA
    ?currentProgram@QGLEngineShaderManager@@QEAAPEAVQGLShaderProgram@@XZ
    ?d_func@QGL2PaintEngineEx@@AEAAPEAVQGL2PaintEngineExPrivate@@XZ
    ?d_func@QGL2PaintEngineEx@@AEBAPEBVQGL2PaintEngineExPrivate@@XZ
    ?d_func@QGLBuffer@@AEAAPEAVQGLBufferPrivate@@XZ
    ?d_func@QGLBuffer@@AEBAPEBVQGLBufferPrivate@@XZ
    ?d_func@QGLContext@@AEAAPEAVQGLContextPrivate@@XZ
    ?d_func@QGLContext@@AEBAPEBVQGLContextPrivate@@XZ
    ?d_func@QGLCustomShaderStage@@AEAAPEAVQGLCustomShaderStagePrivate@@XZ
    ?d_func@QGLCustomShaderStage@@AEBAPEBVQGLCustomShaderStagePrivate@@XZ
    ?d_func@QGLFramebufferObject@@AEAAPEAVQGLFramebufferObjectPrivate@@XZ
    ?d_func@QGLFramebufferObject@@AEBAPEBVQGLFramebufferObjectPrivate@@XZ
    ?d_func@QGLPixelBuffer@@AEAAPEAVQGLPixelBufferPrivate@@XZ
    ?d_func@QGLPixelBuffer@@AEBAPEBVQGLPixelBufferPrivate@@XZ
    ?d_func@QGLShader@@AEAAPEAVQGLShaderPrivate@@XZ
    ?d_func@QGLShader@@AEBAPEBVQGLShaderPrivate@@XZ
    ?d_func@QGLShaderProgram@@AEAAPEAVQGLShaderProgramPrivate@@XZ
    ?d_func@QGLShaderProgram@@AEBAPEBVQGLShaderProgramPrivate@@XZ
    ?d_func@QGLWidget@@AEAAPEAVQGLWidgetPrivate@@XZ
    ?d_func@QGLWidget@@AEBAPEBVQGLWidgetPrivate@@XZ
    ?d_func@QGraphicsShaderEffect@@AEAAPEAVQGraphicsShaderEffectPrivate@@XZ
    ?d_func@QGraphicsShaderEffect@@AEBAPEBVQGraphicsShaderEffectPrivate@@XZ
    ?defaultFormat@QGLFormat@@SA?AV1@XZ
    ?defaultOverlayFormat@QGLFormat@@SA?AV1@XZ
    ?deleteTexture@QGLContext@@QEAAXI@Z
    ?deleteTexture@QGLPixelBuffer@@QEAAXI@Z
    ?deleteTexture@QGLWidget@@QEAAXI@Z
    ?depth@QGLFormat@@QEBA_NXZ
    ?depthBufferSize@QGLFormat@@QEBAHXZ
    ?destroy@QGLBuffer@@QEAAXXZ
    ?detach@QGLColormap@@QEAAXXZ
    ?detach@QGLFormat@@AEAAXXZ
    ?detach@QGLFramebufferObjectFormat@@AEAAXXZ
    ?detach_helper@QGLColormap@@AEAAXXZ
    ?devType@QGLFramebufferObject@@MEBAHXZ
    ?devType@QGLPaintDevice@@UEBAHXZ
    ?devType@QGLPixelBuffer@@MEBAHXZ
    ?device@QGLContext@@QEBAPEAVQPaintDevice@@XZ
    ?deviceIsPixmap@QGLContext@@IEBA_NXZ
    ?directRendering@QGLFormat@@QEBA_NXZ
    ?disableAttributeArray@QGLShaderProgram@@QEAAXH@Z
    ?disableAttributeArray@QGLShaderProgram@@QEAAXPEBD@Z
    ?doneCurrent@QGLContext@@UEAAXXZ
    ?doneCurrent@QGLPixelBuffer@@QEAA_NXZ
    ?doneCurrent@QGLWidget@@QEAAXXZ
    ?doubleBuffer@QGLFormat@@QEBA_NXZ
    ?doubleBuffer@QGLWidget@@QEBA_NXZ
    ?draw@QGraphicsShaderEffect@@MEAAXPEAVQPainter@@@Z
    ?drawImage@QGL2PaintEngineEx@@UEAAXAEBVQRectF@@AEBVQImage@@0V?$QFlags@W4ImageConversionFlag@Qt@@@@@Z
    ?drawPixmap@QGL2PaintEngineEx@@UEAAXAEBVQRectF@@AEBVQPixmap@@0@Z
    ?drawPixmapFragments@QGL2PaintEngineEx@@UEAAXPEBVPixmapFragment@QPainter@@HAEBVQPixmap@@V?$QFlags@W4PixmapFragmentHint@QPainter@@@@@Z
    ?drawStaticTextItem@QGL2PaintEngineEx@@UEAAXPEAVQStaticTextItem@@@Z
    ?drawTextItem@QGL2PaintEngineEx@@UEAAXAEBVQPointF@@AEBVQTextItem@@@Z
    ?drawTexture@QGL2PaintEngineEx@@QEAA_NAEBVQRectF@@IAEBVQSize@@0@Z
    ?drawTexture@QGLContext@@QEAAXAEBVQPointF@@II@Z
    ?drawTexture@QGLContext@@QEAAXAEBVQRectF@@II@Z
    ?drawTexture@QGLFramebufferObject@@QEAAXAEBVQPointF@@II@Z
    ?drawTexture@QGLFramebufferObject@@QEAAXAEBVQRectF@@II@Z
    ?drawTexture@QGLPixelBuffer@@QEAAXAEBVQPointF@@II@Z
    ?drawTexture@QGLPixelBuffer@@QEAAXAEBVQRectF@@II@Z
    ?drawTexture@QGLWidget@@QEAAXAEBVQPointF@@II@Z
    ?drawTexture@QGLWidget@@QEAAXAEBVQRectF@@II@Z
    ?emitAboutToDestroyContext@QGLSignalProxy@@QEAAXPEBVQGLContext@@@Z
    ?emitFreeTexture@QGLTextureDestroyer@@QEAAXPEAVQGLContext@@PEAVQPlatformPixmap@@I@Z
    ?enableAttributeArray@QGLShaderProgram@@QEAAXH@Z
    ?enableAttributeArray@QGLShaderProgram@@QEAAXPEBD@Z
    ?end@QGL2PaintEngineEx@@UEAA_NXZ
    ?endNativePainting@QGL2PaintEngineEx@@UEAAXXZ
    ?endPaint@QGLPaintDevice@@UEAAXXZ
    ?endPaint@QGLWidgetGLPaintDevice@@UEAAXXZ
    ?ensureActive@QGL2PaintEngineEx@@QEAAXXZ
    ?ensureActiveTarget@QGLPaintDevice@@UEAAXXZ
    ?entryColor@QGLColormap@@QEBA?AVQColor@@H@Z
    ?entryRgb@QGLColormap@@QEBAIH@Z
    ?event@QGLWidget@@MEAA_NPEAVQEvent@@@Z
    ?fill@QGL2PaintEngineEx@@UEAAXAEBVQVectorPath@@AEBVQBrush@@@Z
    ?fillTexture@QGLTextureGlyphCache@@UEAAXAEBUCoord@QTextureGlyphCache@@IUQFixed@@@Z
    ?filterMode@QGLTextureGlyphCache@@QEBA?AW4FilterMode@1@XZ
    ?find@QGLColormap@@QEBAHI@Z
    ?findNearest@QGLColormap@@QEBAHI@Z
    ?findProgramInCache@QGLEngineSharedShaders@@QEAAPEAVQGLEngineShaderProg@@AEBV2@@Z
    ?format@QGLContext@@QEBA?AVQGLFormat@@XZ
    ?format@QGLFramebufferObject@@QEBA?AVQGLFramebufferObjectFormat@@XZ
    ?format@QGLPaintDevice@@UEBA?AVQGLFormat@@XZ
    ?format@QGLPixelBuffer@@QEBA?AVQGLFormat@@XZ
    ?format@QGLWidget@@QEBA?AVQGLFormat@@XZ
    ?freeTextureFunc@QGLTextureDestroyer@@CAXPEAVQOpenGLFunctions@@I@Z
    ?fromOpenGLContext@QGLContext@@SAPEAV1@PEAVQOpenGLContext@@@Z
    ?fromSurfaceFormat@QGLFormat@@SA?AV1@AEBVQSurfaceFormat@@@Z
    ?functions@QGLContext@@QEBAPEAVQGLFunctions@@XZ
    ?generateDynamicTexture@QGLPixelBuffer@@QEBAIXZ
    ?geometryInputType@QGLShaderProgram@@QEBAIXZ
    ?geometryOutputType@QGLShaderProgram@@QEBAIXZ
    ?geometryOutputVertexCount@QGLShaderProgram@@QEBAHXZ
    ?getDevice@QGLPaintDevice@@SAPEAV1@PEAVQPaintDevice@@@Z
    ?getProcAddress@QGLContext@@QEBAP6AXXZAEBVQString@@@Z
    ?getUniformLocation@QGLEngineShaderManager@@QEAAIW4Uniform@1@@Z
    ?glActiveTexture@QGLFunctions@@QEAAXI@Z
    ?glAttachShader@QGLFunctions@@QEAAXII@Z
    ?glBindAttribLocation@QGLFunctions@@QEAAXIIPEBD@Z
    ?glBindBuffer@QGLFunctions@@QEAAXII@Z
    ?glBindFramebuffer@QGLFunctions@@QEAAXII@Z
    ?glBindRenderbuffer@QGLFunctions@@QEAAXII@Z
    ?glBlendColor@QGLFunctions@@QEAAXMMMM@Z
    ?glBlendEquation@QGLFunctions@@QEAAXI@Z
    ?glBlendEquationSeparate@QGLFunctions@@QEAAXII@Z
    ?glBlendFuncSeparate@QGLFunctions@@QEAAXIIII@Z
    ?glBufferData@QGLFunctions@@QEAAXI_JPEBXI@Z
    ?glBufferSubData@QGLFunctions@@QEAAXI_J0PEBX@Z
    ?glCheckFramebufferStatus@QGLFunctions@@QEAAII@Z
    ?glClearDepthf@QGLFunctions@@QEAAXM@Z
    ?glCompileShader@QGLFunctions@@QEAAXI@Z
    ?glCompressedTexImage2D@QGLFunctions@@QEAAXIHIHHHHPEBX@Z
    ?glCompressedTexSubImage2D@QGLFunctions@@QEAAXIHHHHHIHPEBX@Z
    ?glCreateProgram@QGLFunctions@@QEAAIXZ
    ?glCreateShader@QGLFunctions@@QEAAII@Z
    ?glDeleteBuffers@QGLFunctions@@QEAAXHPEBI@Z
    ?glDeleteFramebuffers@QGLFunctions@@QEAAXHPEBI@Z
    ?glDeleteProgram@QGLFunctions@@QEAAXI@Z
    ?glDeleteRenderbuffers@QGLFunctions@@QEAAXHPEBI@Z
    ?glDeleteShader@QGLFunctions@@QEAAXI@Z
    ?glDepthRangef@QGLFunctions@@QEAAXMM@Z
    ?glDetachShader@QGLFunctions@@QEAAXII@Z
    ?glDisableVertexAttribArray@QGLFunctions@@QEAAXI@Z
    ?glDraw@QGLWidget@@MEAAXXZ
    ?glEnableVertexAttribArray@QGLFunctions@@QEAAXI@Z
    ?glFramebufferRenderbuffer@QGLFunctions@@QEAAXIIII@Z
    ?glFramebufferTexture2D@QGLFunctions@@QEAAXIIIIH@Z
    ?glGenBuffers@QGLFunctions@@QEAAXHPEAI@Z
    ?glGenFramebuffers@QGLFunctions@@QEAAXHPEAI@Z
    ?glGenRenderbuffers@QGLFunctions@@QEAAXHPEAI@Z
    ?glGenerateMipmap@QGLFunctions@@QEAAXI@Z
    ?glGetActiveAttrib@QGLFunctions@@QEAAXIIHPEAH0PEAIPEAD@Z
    ?glGetActiveUniform@QGLFunctions@@QEAAXIIHPEAH0PEAIPEAD@Z
    ?glGetAttachedShaders@QGLFunctions@@QEAAXIHPEAHPEAI@Z
    ?glGetAttribLocation@QGLFunctions@@QEAAHIPEBD@Z
    ?glGetBufferParameteriv@QGLFunctions@@QEAAXIIPEAH@Z
    ?glGetFramebufferAttachmentParameteriv@QGLFunctions@@QEAAXIIIPEAH@Z
    ?glGetProgramInfoLog@QGLFunctions@@QEAAXIHPEAHPEAD@Z
    ?glGetProgramiv@QGLFunctions@@QEAAXIIPEAH@Z
    ?glGetRenderbufferParameteriv@QGLFunctions@@QEAAXIIPEAH@Z
    ?glGetShaderInfoLog@QGLFunctions@@QEAAXIHPEAHPEAD@Z
    ?glGetShaderPrecisionFormat@QGLFunctions@@QEAAXIIPEAH0@Z
    ?glGetShaderSource@QGLFunctions@@QEAAXIHPEAHPEAD@Z
    ?glGetShaderiv@QGLFunctions@@QEAAXIIPEAH@Z
    ?glGetUniformLocation@QGLFunctions@@QEAAHIPEBD@Z
    ?glGetUniformfv@QGLFunctions@@QEAAXIHPEAM@Z
    ?glGetUniformiv@QGLFunctions@@QEAAXIHPEAH@Z
    ?glGetVertexAttribPointerv@QGLFunctions@@QEAAXIIPEAPEAX@Z
    ?glGetVertexAttribfv@QGLFunctions@@QEAAXIIPEAM@Z
    ?glGetVertexAttribiv@QGLFunctions@@QEAAXIIPEAH@Z
    ?glInit@QGLWidget@@MEAAXXZ
    ?glIsBuffer@QGLFunctions@@QEAAEI@Z
    ?glIsFramebuffer@QGLFunctions@@QEAAEI@Z
    ?glIsProgram@QGLFunctions@@QEAAEI@Z
    ?glIsRenderbuffer@QGLFunctions@@QEAAEI@Z
    ?glIsShader@QGLFunctions@@QEAAEI@Z
    ?glLinkProgram@QGLFunctions@@QEAAXI@Z
    ?glReleaseShaderCompiler@QGLFunctions@@QEAAXXZ
    ?glRenderbufferStorage@QGLFunctions@@QEAAXIIHH@Z
    ?glSampleCoverage@QGLFunctions@@QEAAXME@Z
    ?glShaderBinary@QGLFunctions@@QEAAXHPEBIIPEBXH@Z
    ?glShaderSource@QGLFunctions@@QEAAXIHPEAPEBDPEBH@Z
    ?glStencilFuncSeparate@QGLFunctions@@QEAAXIIHI@Z
    ?glStencilMaskSeparate@QGLFunctions@@QEAAXII@Z
    ?glStencilOpSeparate@QGLFunctions@@QEAAXIIII@Z
    ?glUniform1f@QGLFunctions@@QEAAXHM@Z
    ?glUniform1fv@QGLFunctions@@QEAAXHHPEBM@Z
    ?glUniform1i@QGLFunctions@@QEAAXHH@Z
    ?glUniform1iv@QGLFunctions@@QEAAXHHPEBH@Z
    ?glUniform2f@QGLFunctions@@QEAAXHMM@Z
    ?glUniform2fv@QGLFunctions@@QEAAXHHPEBM@Z
    ?glUniform2i@QGLFunctions@@QEAAXHHH@Z
    ?glUniform2iv@QGLFunctions@@QEAAXHHPEBH@Z
    ?glUniform3f@QGLFunctions@@QEAAXHMMM@Z
    ?glUniform3fv@QGLFunctions@@QEAAXHHPEBM@Z
    ?glUniform3i@QGLFunctions@@QEAAXHHHH@Z
    ?glUniform3iv@QGLFunctions@@QEAAXHHPEBH@Z
    ?glUniform4f@QGLFunctions@@QEAAXHMMMM@Z
    ?glUniform4fv@QGLFunctions@@QEAAXHHPEBM@Z
    ?glUniform4i@QGLFunctions@@QEAAXHHHHH@Z
    ?glUniform4iv@QGLFunctions@@QEAAXHHPEBH@Z
    ?glUniformMatrix2fv@QGLFunctions@@QEAAXHHEPEBM@Z
    ?glUniformMatrix3fv@QGLFunctions@@QEAAXHHEPEBM@Z
    ?glUniformMatrix4fv@QGLFunctions@@QEAAXHHEPEBM@Z
    ?glUseProgram@QGLFunctions@@QEAAXI@Z
    ?glValidateProgram@QGLFunctions@@QEAAXI@Z
    ?glVertexAttrib1f@QGLFunctions@@QEAAXIM@Z
    ?glVertexAttrib1fv@QGLFunctions@@QEAAXIPEBM@Z
    ?glVertexAttrib2f@QGLFunctions@@QEAAXIMM@Z
    ?glVertexAttrib2fv@QGLFunctions@@QEAAXIPEBM@Z
    ?glVertexAttrib3f@QGLFunctions@@QEAAXIMMM@Z
    ?glVertexAttrib3fv@QGLFunctions@@QEAAXIPEBM@Z
    ?glVertexAttrib4f@QGLFunctions@@QEAAXIMMMM@Z
    ?glVertexAttrib4fv@QGLFunctions@@QEAAXIPEBM@Z
    ?glVertexAttribPointer@QGLFunctions@@QEAAXIHIEHPEBX@Z
    ?glyphPadding@QGLTextureGlyphCache@@UEBAHXZ
    ?grabFrameBuffer@QGLWidget@@QEAA?AVQImage@@_N@Z
    ?greenBufferSize@QGLFormat@@QEBAHXZ
    ?handle@QGLColormap@@IEAAPEAXXZ
    ?handle@QGLFramebufferObject@@QEBAIXZ
    ?handle@QGLPixelBuffer@@QEBAPEAXXZ
    ?hasComplexGeometry@QGLEngineShaderManager@@QEBA_NXZ
    ?hasOpenGL@QGLFormat@@SA_NXZ
    ?hasOpenGLFeature@QGLFunctions@@QEBA_NW4OpenGLFeature@1@@Z
    ?hasOpenGLFramebufferBlit@QGLFramebufferObject@@SA_NXZ
    ?hasOpenGLFramebufferObjects@QGLFramebufferObject@@SA_NXZ
    ?hasOpenGLOverlays@QGLFormat@@SA_NXZ
    ?hasOpenGLPbuffers@QGLPixelBuffer@@SA_NXZ
    ?hasOpenGLShaderPrograms@QGLShaderProgram@@SA_NPEBVQGLContext@@@Z
    ?hasOpenGLShaders@QGLShader@@SA_NV?$QFlags@W4ShaderTypeBit@QGLShader@@@@PEBVQGLContext@@@Z
    ?hasOverlay@QGLFormat@@QEBA_NXZ
    ?height@QGLTextureGlyphCache@@QEBAHXZ
    ?init@QGLShaderProgram@@AEAA_NXZ
    ?init@QGLWidgetPrivate@@QEAAXPEAVQGLContext@@PEBVQGLWidget@@@Z
    ?initContext@QGLWidgetPrivate@@QEAAXPEAVQGLContext@@PEBVQGLWidget@@@Z
    ?initializeGL@QGLWidget@@MEAAXXZ
    ?initializeGLFunctions@QGLFunctions@@QEAAXPEBVQGLContext@@@Z
    ?initializeOverlayGL@QGLWidget@@MEAAXXZ
    ?initialized@QGLContext@@IEBA_NXZ
    ?instance@QGLSignalProxy@@SAPEAV1@XZ
    ?internalTextureFormat@QGLFramebufferObjectFormat@@QEBAIXZ
    ?invalidateState@QGL2PaintEngineEx@@QEAAXXZ
    ?isBound@QGLFramebufferObject@@QEBA_NXZ
    ?isCompiled@QGLShader@@QEBA_NXZ
    ?isCreated@QGLBuffer@@QEBA_NXZ
    ?isEmpty@QGLColormap@@QEBA_NXZ
    ?isFlipped@QGLPaintDevice@@UEBA_NXZ
    ?isInitialized@QGLFunctions@@CA_NPEBUQGLFunctionsPrivate@@@Z
    ?isLinked@QGLShaderProgram@@QEBA_NXZ
    ?isNativePaintingActive@QGL2PaintEngineEx@@QEBA_NXZ
    ?isSharing@QGLContext@@QEBA_NXZ
    ?isSharing@QGLWidget@@QEBA_NXZ
    ?isValid@QGLContext@@QEBA_NXZ
    ?isValid@QGLFramebufferObject@@QEBA_NXZ
    ?isValid@QGLPixelBuffer@@QEBA_NXZ
    ?isValid@QGLWidget@@QEBA_NXZ
    ?link@QGLShaderProgram@@UEAA_NXZ
    ?log@QGLShader@@QEBA?AVQString@@XZ
    ?log@QGLShaderProgram@@QEBA?AVQString@@XZ
    ?majorVersion@QGLFormat@@QEBAHXZ
    ?makeCurrent@QGLContext@@UEAAXXZ
    ?makeCurrent@QGLPixelBuffer@@QEAA_NXZ
    ?makeCurrent@QGLWidget@@QEAAXXZ
    ?makeCurrent@QGLWidgetPrivate@@QEAA_NXZ
    ?makeOverlayCurrent@QGLWidget@@QEAAXXZ
    ?map@QGLBuffer@@QEAAPEAXW4Access@1@@Z
    ?maxGeometryOutputVertices@QGLShaderProgram@@QEBAHXZ
    ?maxTextureHeight@QGLTextureGlyphCache@@UEBAHXZ
    ?maxTextureWidth@QGLTextureGlyphCache@@UEBAHXZ
    ?metaObject@QGLEngineShaderManager@@UEBAPEBUQMetaObject@@XZ
    ?metaObject@QGLShader@@UEBAPEBUQMetaObject@@XZ
    ?metaObject@QGLShaderProgram@@UEBAPEBUQMetaObject@@XZ
    ?metaObject@QGLSignalProxy@@UEBAPEBUQMetaObject@@XZ
    ?metaObject@QGLWidget@@UEBAPEBUQMetaObject@@XZ
    ?metaObject@QGraphicsShaderEffect@@UEBAPEBUQMetaObject@@XZ
    ?metric@QGLFramebufferObject@@MEBAHW4PaintDeviceMetric@QPaintDevice@@@Z
    ?metric@QGLPaintDevice@@MEBAHW4PaintDeviceMetric@QPaintDevice@@@Z
    ?metric@QGLPixelBuffer@@MEBAHW4PaintDeviceMetric@QPaintDevice@@@Z
    ?minorVersion@QGLFormat@@QEBAHXZ
    ?mipmap@QGLFramebufferObjectFormat@@QEBA_NXZ
    ?moveToThread@QGLContext@@QEAAXPEAVQThread@@@Z
    ?opacityChanged@QGL2PaintEngineEx@@UEAAXXZ
    ?openGLFeatures@QGLFunctions@@QEBA?AV?$QFlags@W4OpenGLFeature@QGLFunctions@@@@XZ
    ?openGLVersionFlags@QGLFormat@@SA?AV?$QFlags@W4OpenGLVersionFlag@QGLFormat@@@@XZ
    ?optimiseForBrushTransform@QGLEngineShaderManager@@QEAAXW4TransformationType@QTransform@@@Z
    ?overlayContext@QGLWidget@@QEBAPEBVQGLContext@@XZ
    ?overlayTransparentColor@QGLContext@@QEBA?AVQColor@@XZ
    ?paintEngine@QGLFramebufferObject@@UEBAPEAVQPaintEngine@@XZ
    ?paintEngine@QGLPixelBuffer@@UEBAPEAVQPaintEngine@@XZ
    ?paintEngine@QGLWidget@@UEBAPEAVQPaintEngine@@XZ
    ?paintEngine@QGLWidgetGLPaintDevice@@UEBAPEAVQPaintEngine@@XZ
    ?paintEvent@QGLWidget@@MEAAXPEAVQPaintEvent@@@Z
    ?paintGL@QGLWidget@@MEAAXXZ
    ?paintOverlayGL@QGLWidget@@MEAAXXZ
    ?penChanged@QGL2PaintEngineEx@@UEAAXXZ
    ?pixelShaderFragment@QGraphicsShaderEffect@@QEBA?AVQByteArray@@XZ
    ?plane@QGLFormat@@QEBAHXZ
    ?profile@QGLFormat@@QEBA?AW4OpenGLContextProfile@1@XZ
    ?programId@QGLShaderProgram@@QEBAIXZ
    ?qShaderSnippets@QGLEngineSharedShaders@@0PAPEBDA
    ?q_func@QGLWidgetPrivate@@AEAAPEAVQGLWidget@@XZ
    ?q_func@QGLWidgetPrivate@@AEBAPEBVQGLWidget@@XZ
    ?qglClearColor@QGLWidget@@QEBAXAEBVQColor@@@Z
    ?qglColor@QGLWidget@@QEBAXAEBVQColor@@@Z
    ?qt_metacall@QGLEngineShaderManager@@UEAAHW4Call@QMetaObject@@HPEAPEAX@Z
    ?qt_metacall@QGLShader@@UEAAHW4Call@QMetaObject@@HPEAPEAX@Z
    ?qt_metacall@QGLShaderProgram@@UEAAHW4Call@QMetaObject@@HPEAPEAX@Z
    ?qt_metacall@QGLSignalProxy@@UEAAHW4Call@QMetaObject@@HPEAPEAX@Z
    ?qt_metacall@QGLWidget@@UEAAHW4Call@QMetaObject@@HPEAPEAX@Z
    ?qt_metacall@QGraphicsShaderEffect@@UEAAHW4Call@QMetaObject@@HPEAPEAX@Z
    ?qt_metacast@QGLEngineShaderManager@@UEAAPEAXPEBD@Z
    ?qt_metacast@QGLShader@@UEAAPEAXPEBD@Z
    ?qt_metacast@QGLShaderProgram@@UEAAPEAXPEBD@Z
    ?qt_metacast@QGLSignalProxy@@UEAAPEAXPEBD@Z
    ?qt_metacast@QGLWidget@@UEAAPEAXPEBD@Z
    ?qt_metacast@QGraphicsShaderEffect@@UEAAPEAXPEBD@Z
    ?qt_qgl_paint_engine@@YAPEAVQPaintEngine@@XZ
    ?qt_static_metacall@QGLEngineShaderManager@@CAXPEAVQObject@@W4Call@QMetaObject@@HPEAPEAX@Z
    ?qt_static_metacall@QGLShader@@CAXPEAVQObject@@W4Call@QMetaObject@@HPEAPEAX@Z
    ?qt_static_metacall@QGLShaderProgram@@CAXPEAVQObject@@W4Call@QMetaObject@@HPEAPEAX@Z
    ?qt_static_metacall@QGLSignalProxy@@CAXPEAVQObject@@W4Call@QMetaObject@@HPEAPEAX@Z
    ?qt_static_metacall@QGLWidget@@CAXPEAVQObject@@W4Call@QMetaObject@@HPEAPEAX@Z
    ?qt_static_metacall@QGraphicsShaderEffect@@CAXPEAVQObject@@W4Call@QMetaObject@@HPEAPEAX@Z
    ?read@QGLBuffer@@QEAA_NHPEAXH@Z
    ?redBufferSize@QGLFormat@@QEBAHXZ
    ?release@QGLBuffer@@QEAAXXZ
    ?release@QGLBuffer@@SAXW4Type@1@@Z
    ?release@QGLFramebufferObject@@QEAA_NXZ
    ?release@QGLShaderProgram@@QEAAXXZ
    ?releaseFromDynamicTexture@QGLPixelBuffer@@QEAAXXZ
    ?removeAllShaders@QGLShaderProgram@@QEAAXXZ
    ?removeCustomStage@QGLEngineShaderManager@@QEAAXXZ
    ?removeFromPainter@QGLCustomShaderStage@@QEAAXPEAVQPainter@@@Z
    ?removeShader@QGLShaderProgram@@QEAAXPEAVQGLShader@@@Z
    ?renderCxPm@QGLWidgetPrivate@@QEAA_NPEAVQPixmap@@@Z
    ?renderHintsChanged@QGL2PaintEngineEx@@UEAAXXZ
    ?renderPixmap@QGLWidget@@QEAA?AVQPixmap@@HH_N@Z
    ?renderText@QGLWidget@@QEAAXHHAEBVQString@@AEBVQFont@@@Z
    ?renderText@QGLWidget@@QEAAXNNNAEBVQString@@AEBVQFont@@@Z
    ?requestedFormat@QGLContext@@QEBA?AVQGLFormat@@XZ
    ?requiresPretransformedGlyphPositions@QGL2PaintEngineEx@@UEBA_NPEAVQFontEngine@@AEBVQTransform@@@Z
    ?reset@QGLContext@@QEAAXXZ
    ?resizeEvent@QGLWidget@@MEAAXPEAVQResizeEvent@@@Z
    ?resizeGL@QGLWidget@@MEAAXHH@Z
    ?resizeOverlayGL@QGLWidget@@MEAAXHH@Z
    ?resizeTextureData@QGLTextureGlyphCache@@UEAAXHH@Z
    ?rgba@QGLFormat@@QEBA_NXZ
    ?sampleBuffers@QGLFormat@@QEBA_NXZ
    ?samples@QGLFormat@@QEBAHXZ
    ?samples@QGLFramebufferObjectFormat@@QEBAHXZ
    ?serialNumber@QGLTextureGlyphCache@@QEBAHXZ
    ?setAccum@QGLFormat@@QEAAX_N@Z
    ?setAccumBufferSize@QGLFormat@@QEAAXH@Z
    ?setAlpha@QGLFormat@@QEAAX_N@Z
    ?setAlphaBufferSize@QGLFormat@@QEAAXH@Z
    ?setAttachment@QGLFramebufferObjectFormat@@QEAAXW4Attachment@QGLFramebufferObject@@@Z
    ?setAttributeArray@QGLShaderProgram@@QEAAXHIPEBXHH@Z
    ?setAttributeArray@QGLShaderProgram@@QEAAXHPEBMHH@Z
    ?setAttributeArray@QGLShaderProgram@@QEAAXHPEBVQVector2D@@H@Z
    ?setAttributeArray@QGLShaderProgram@@QEAAXHPEBVQVector3D@@H@Z
    ?setAttributeArray@QGLShaderProgram@@QEAAXHPEBVQVector4D@@H@Z
    ?setAttributeArray@QGLShaderProgram@@QEAAXPEBDIPEBXHH@Z
    ?setAttributeArray@QGLShaderProgram@@QEAAXPEBDPEBMHH@Z
    ?setAttributeArray@QGLShaderProgram@@QEAAXPEBDPEBVQVector2D@@H@Z
    ?setAttributeArray@QGLShaderProgram@@QEAAXPEBDPEBVQVector3D@@H@Z
    ?setAttributeArray@QGLShaderProgram@@QEAAXPEBDPEBVQVector4D@@H@Z
    ?setAttributeBuffer@QGLShaderProgram@@QEAAXHIHHH@Z
    ?setAttributeBuffer@QGLShaderProgram@@QEAAXPEBDIHHH@Z
    ?setAttributeValue@QGLShaderProgram@@QEAAXHAEBVQColor@@@Z
    ?setAttributeValue@QGLShaderProgram@@QEAAXHAEBVQVector2D@@@Z
    ?setAttributeValue@QGLShaderProgram@@QEAAXHAEBVQVector3D@@@Z
    ?setAttributeValue@QGLShaderProgram@@QEAAXHAEBVQVector4D@@@Z
    ?setAttributeValue@QGLShaderProgram@@QEAAXHM@Z
    ?setAttributeValue@QGLShaderProgram@@QEAAXHMM@Z
    ?setAttributeValue@QGLShaderProgram@@QEAAXHMMM@Z
    ?setAttributeValue@QGLShaderProgram@@QEAAXHMMMM@Z
    ?setAttributeValue@QGLShaderProgram@@QEAAXHPEBMHH@Z
    ?setAttributeValue@QGLShaderProgram@@QEAAXPEBDAEBVQColor@@@Z
    ?setAttributeValue@QGLShaderProgram@@QEAAXPEBDAEBVQVector2D@@@Z
    ?setAttributeValue@QGLShaderProgram@@QEAAXPEBDAEBVQVector3D@@@Z
    ?setAttributeValue@QGLShaderProgram@@QEAAXPEBDAEBVQVector4D@@@Z
    ?setAttributeValue@QGLShaderProgram@@QEAAXPEBDM@Z
    ?setAttributeValue@QGLShaderProgram@@QEAAXPEBDMM@Z
    ?setAttributeValue@QGLShaderProgram@@QEAAXPEBDMMM@Z
    ?setAttributeValue@QGLShaderProgram@@QEAAXPEBDMMMM@Z
    ?setAttributeValue@QGLShaderProgram@@QEAAXPEBDPEBMHH@Z
    ?setAutoBufferSwap@QGLWidget@@IEAAX_N@Z
    ?setBlueBufferSize@QGLFormat@@QEAAXH@Z
    ?setColormap@QGLWidget@@QEAAXAEBVQGLColormap@@@Z
    ?setCompositionMode@QGLEngineShaderManager@@QEAAXW4CompositionMode@QPainter@@@Z
    ?setContext@QGLWidget@@QEAAXPEAVQGLContext@@PEBV2@_N@Z
    ?setCustomStage@QGLEngineShaderManager@@QEAAXPEAVQGLCustomShaderStage@@@Z
    ?setDefaultFormat@QGLFormat@@SAXAEBV1@@Z
    ?setDefaultOverlayFormat@QGLFormat@@SAXAEBV1@@Z
    ?setDepth@QGLFormat@@QEAAX_N@Z
    ?setDepthBufferSize@QGLFormat@@QEAAXH@Z
    ?setDevice@QGLContext@@IEAAXPEAVQPaintDevice@@@Z
    ?setDirectRendering@QGLFormat@@QEAAX_N@Z
    ?setDirty@QGLEngineShaderManager@@QEAAXXZ
    ?setDoubleBuffer@QGLFormat@@QEAAX_N@Z
    ?setEntries@QGLColormap@@QEAAXHPEBIH@Z
    ?setEntry@QGLColormap@@QEAAXHAEBVQColor@@@Z
    ?setEntry@QGLColormap@@QEAAXHI@Z
    ?setFilterMode@QGLTextureGlyphCache@@QEAAXW4FilterMode@1@@Z
    ?setFormat@QGLContext@@QEAAXAEBVQGLFormat@@@Z
    ?setFormat@QGLWidget@@QEAAXAEBVQGLFormat@@@Z
    ?setGeometryInputType@QGLShaderProgram@@QEAAXI@Z
    ?setGeometryOutputType@QGLShaderProgram@@QEAAXI@Z
    ?setGeometryOutputVertexCount@QGLShaderProgram@@QEAAXH@Z
    ?setGreenBufferSize@QGLFormat@@QEAAXH@Z
    ?setHandle@QGLColormap@@IEAAXPEAX@Z
    ?setHasComplexGeometry@QGLEngineShaderManager@@QEAAX_N@Z
    ?setInactive@QGLCustomShaderStage@@QEAAXXZ
    ?setInitialized@QGLContext@@IEAAX_N@Z
    ?setInternalTextureFormat@QGLFramebufferObjectFormat@@QEAAXI@Z
    ?setMaskType@QGLEngineShaderManager@@QEAAXW4MaskType@1@@Z
    ?setMipmap@QGLFramebufferObjectFormat@@QEAAX_N@Z
    ?setOnPainter@QGLCustomShaderStage@@QEAA_NPEAVQPainter@@@Z
    ?setOpacityMode@QGLEngineShaderManager@@QEAAXW4OpacityMode@1@@Z
    ?setOption@QGLFormat@@QEAAXV?$QFlags@W4FormatOption@QGL@@@@@Z
    ?setOverlay@QGLFormat@@QEAAX_N@Z
    ?setPaintEnginePrivate@QGLTextureGlyphCache@@QEAAXPEAVQGL2PaintEngineExPrivate@@@Z
    ?setPixelShaderFragment@QGraphicsShaderEffect@@QEAAXAEBVQByteArray@@@Z
    ?setPlane@QGLFormat@@QEAAXH@Z
    ?setProfile@QGLFormat@@QEAAXW4OpenGLContextProfile@1@@Z
    ?setRedBufferSize@QGLFormat@@QEAAXH@Z
    ?setRgba@QGLFormat@@QEAAX_N@Z
    ?setSampleBuffers@QGLFormat@@QEAAX_N@Z
    ?setSamples@QGLFormat@@QEAAXH@Z
    ?setSamples@QGLFramebufferObjectFormat@@QEAAXH@Z
    ?setSource@QGLCustomShaderStage@@IEAAXAEBVQByteArray@@@Z
    ?setSrcPixelType@QGLEngineShaderManager@@QEAAXW4BrushStyle@Qt@@@Z
    ?setSrcPixelType@QGLEngineShaderManager@@QEAAXW4PixelSrcType@1@@Z
    ?setState@QGL2PaintEngineEx@@UEAAXPEAVQPainterState@@@Z
    ?setStencil@QGLFormat@@QEAAX_N@Z
    ?setStencilBufferSize@QGLFormat@@QEAAXH@Z
    ?setStereo@QGLFormat@@QEAAX_N@Z
    ?setSwapInterval@QGLFormat@@QEAAXH@Z
    ?setTextureCacheLimit@QGLContext@@SAXH@Z
    ?setTextureTarget@QGLFramebufferObjectFormat@@QEAAXI@Z
    ?setTranslateZ@QGL2PaintEngineEx@@QEAAXM@Z
    ?setUniformValue@QGLShaderProgram@@QEAAXHAEBV?$QGenericMatrix@$01$01M@@@Z
    ?setUniformValue@QGLShaderProgram@@QEAAXHAEBV?$QGenericMatrix@$01$02M@@@Z
    ?setUniformValue@QGLShaderProgram@@QEAAXHAEBV?$QGenericMatrix@$01$03M@@@Z
    ?setUniformValue@QGLShaderProgram@@QEAAXHAEBV?$QGenericMatrix@$02$01M@@@Z
    ?setUniformValue@QGLShaderProgram@@QEAAXHAEBV?$QGenericMatrix@$02$02M@@@Z
    ?setUniformValue@QGLShaderProgram@@QEAAXHAEBV?$QGenericMatrix@$02$03M@@@Z
    ?setUniformValue@QGLShaderProgram@@QEAAXHAEBV?$QGenericMatrix@$03$01M@@@Z
    ?setUniformValue@QGLShaderProgram@@QEAAXHAEBV?$QGenericMatrix@$03$02M@@@Z
    ?setUniformValue@QGLShaderProgram@@QEAAXHAEBVQColor@@@Z
    ?setUniformValue@QGLShaderProgram@@QEAAXHAEBVQMatrix4x4@@@Z
    ?setUniformValue@QGLShaderProgram@@QEAAXHAEBVQPoint@@@Z
    ?setUniformValue@QGLShaderProgram@@QEAAXHAEBVQPointF@@@Z
    ?setUniformValue@QGLShaderProgram@@QEAAXHAEBVQSize@@@Z
    ?setUniformValue@QGLShaderProgram@@QEAAXHAEBVQSizeF@@@Z
    ?setUniformValue@QGLShaderProgram@@QEAAXHAEBVQTransform@@@Z
    ?setUniformValue@QGLShaderProgram@@QEAAXHAEBVQVector2D@@@Z
    ?setUniformValue@QGLShaderProgram@@QEAAXHAEBVQVector3D@@@Z
    ?setUniformValue@QGLShaderProgram@@QEAAXHAEBVQVector4D@@@Z
    ?setUniformValue@QGLShaderProgram@@QEAAXHH@Z
    ?setUniformValue@QGLShaderProgram@@QEAAXHI@Z
    ?setUniformValue@QGLShaderProgram@@QEAAXHM@Z
    ?setUniformValue@QGLShaderProgram@@QEAAXHMM@Z
    ?setUniformValue@QGLShaderProgram@@QEAAXHMMM@Z
    ?setUniformValue@QGLShaderProgram@@QEAAXHMMMM@Z
    ?setUniformValue@QGLShaderProgram@@QEAAXHQEAY01$$CBM@Z
    ?setUniformValue@QGLShaderProgram@@QEAAXHQEAY02$$CBM@Z
    ?setUniformValue@QGLShaderProgram@@QEAAXHQEAY03$$CBM@Z
    ?setUniformValue@QGLShaderProgram@@QEAAXPEBDAEBV?$QGenericMatrix@$01$01M@@@Z
    ?setUniformValue@QGLShaderProgram@@QEAAXPEBDAEBV?$QGenericMatrix@$01$02M@@@Z
    ?setUniformValue@QGLShaderProgram@@QEAAXPEBDAEBV?$QGenericMatrix@$01$03M@@@Z
    ?setUniformValue@QGLShaderProgram@@QEAAXPEBDAEBV?$QGenericMatrix@$02$01M@@@Z
    ?setUniformValue@QGLShaderProgram@@QEAAXPEBDAEBV?$QGenericMatrix@$02$02M@@@Z
    ?setUniformValue@QGLShaderProgram@@QEAAXPEBDAEBV?$QGenericMatrix@$02$03M@@@Z
    ?setUniformValue@QGLShaderProgram@@QEAAXPEBDAEBV?$QGenericMatrix@$03$01M@@@Z
    ?setUniformValue@QGLShaderProgram@@QEAAXPEBDAEBV?$QGenericMatrix@$03$02M@@@Z
    ?setUniformValue@QGLShaderProgram@@QEAAXPEBDAEBVQColor@@@Z
    ?setUniformValue@QGLShaderProgram@@QEAAXPEBDAEBVQMatrix4x4@@@Z
    ?setUniformValue@QGLShaderProgram@@QEAAXPEBDAEBVQPoint@@@Z
    ?setUniformValue@QGLShaderProgram@@QEAAXPEBDAEBVQPointF@@@Z
    ?setUniformValue@QGLShaderProgram@@QEAAXPEBDAEBVQSize@@@Z
    ?setUniformValue@QGLShaderProgram@@QEAAXPEBDAEBVQSizeF@@@Z
    ?setUniformValue@QGLShaderProgram@@QEAAXPEBDAEBVQTransform@@@Z
    ?setUniformValue@QGLShaderProgram@@QEAAXPEBDAEBVQVector2D@@@Z
    ?setUniformValue@QGLShaderProgram@@QEAAXPEBDAEBVQVector3D@@@Z
    ?setUniformValue@QGLShaderProgram@@QEAAXPEBDAEBVQVector4D@@@Z
    ?setUniformValue@QGLShaderProgram@@QEAAXPEBDH@Z
    ?setUniformValue@QGLShaderProgram@@QEAAXPEBDI@Z
    ?setUniformValue@QGLShaderProgram@@QEAAXPEBDM@Z
    ?setUniformValue@QGLShaderProgram@@QEAAXPEBDMM@Z
    ?setUniformValue@QGLShaderProgram@@QEAAXPEBDMMM@Z
    ?setUniformValue@QGLShaderProgram@@QEAAXPEBDMMMM@Z
    ?setUniformValue@QGLShaderProgram@@QEAAXPEBDQEAY01$$CBM@Z
    ?setUniformValue@QGLShaderProgram@@QEAAXPEBDQEAY02$$CBM@Z
    ?setUniformValue@QGLShaderProgram@@QEAAXPEBDQEAY03$$CBM@Z
    ?setUniformValueArray@QGLShaderProgram@@QEAAXHPEBHH@Z
    ?setUniformValueArray@QGLShaderProgram@@QEAAXHPEBIH@Z
    ?setUniformValueArray@QGLShaderProgram@@QEAAXHPEBMHH@Z
    ?setUniformValueArray@QGLShaderProgram@@QEAAXHPEBV?$QGenericMatrix@$01$01M@@H@Z
    ?setUniformValueArray@QGLShaderProgram@@QEAAXHPEBV?$QGenericMatrix@$01$02M@@H@Z
    ?setUniformValueArray@QGLShaderProgram@@QEAAXHPEBV?$QGenericMatrix@$01$03M@@H@Z
    ?setUniformValueArray@QGLShaderProgram@@QEAAXHPEBV?$QGenericMatrix@$02$01M@@H@Z
    ?setUniformValueArray@QGLShaderProgram@@QEAAXHPEBV?$QGenericMatrix@$02$02M@@H@Z
    ?setUniformValueArray@QGLShaderProgram@@QEAAXHPEBV?$QGenericMatrix@$02$03M@@H@Z
    ?setUniformValueArray@QGLShaderProgram@@QEAAXHPEBV?$QGenericMatrix@$03$01M@@H@Z
    ?setUniformValueArray@QGLShaderProgram@@QEAAXHPEBV?$QGenericMatrix@$03$02M@@H@Z
    ?setUniformValueArray@QGLShaderProgram@@QEAAXHPEBVQMatrix4x4@@H@Z
    ?setUniformValueArray@QGLShaderProgram@@QEAAXHPEBVQVector2D@@H@Z
    ?setUniformValueArray@QGLShaderProgram@@QEAAXHPEBVQVector3D@@H@Z
    ?setUniformValueArray@QGLShaderProgram@@QEAAXHPEBVQVector4D@@H@Z
    ?setUniformValueArray@QGLShaderProgram@@QEAAXPEBDPEBHH@Z
    ?setUniformValueArray@QGLShaderProgram@@QEAAXPEBDPEBIH@Z
    ?setUniformValueArray@QGLShaderProgram@@QEAAXPEBDPEBMHH@Z
    ?setUniformValueArray@QGLShaderProgram@@QEAAXPEBDPEBV?$QGenericMatrix@$01$01M@@H@Z
    ?setUniformValueArray@QGLShaderProgram@@QEAAXPEBDPEBV?$QGenericMatrix@$01$02M@@H@Z
    ?setUniformValueArray@QGLShaderProgram@@QEAAXPEBDPEBV?$QGenericMatrix@$01$03M@@H@Z
    ?setUniformValueArray@QGLShaderProgram@@QEAAXPEBDPEBV?$QGenericMatrix@$02$01M@@H@Z
    ?setUniformValueArray@QGLShaderProgram@@QEAAXPEBDPEBV?$QGenericMatrix@$02$02M@@H@Z
    ?setUniformValueArray@QGLShaderProgram@@QEAAXPEBDPEBV?$QGenericMatrix@$02$03M@@H@Z
    ?setUniformValueArray@QGLShaderProgram@@QEAAXPEBDPEBV?$QGenericMatrix@$03$01M@@H@Z
    ?setUniformValueArray@QGLShaderProgram@@QEAAXPEBDPEBV?$QGenericMatrix@$03$02M@@H@Z
    ?setUniformValueArray@QGLShaderProgram@@QEAAXPEBDPEBVQMatrix4x4@@H@Z
    ?setUniformValueArray@QGLShaderProgram@@QEAAXPEBDPEBVQVector2D@@H@Z
    ?setUniformValueArray@QGLShaderProgram@@QEAAXPEBDPEBVQVector3D@@H@Z
    ?setUniformValueArray@QGLShaderProgram@@QEAAXPEBDPEBVQVector4D@@H@Z
    ?setUniforms@QGLCustomShaderStage@@UEAAXPEAVQGLShaderProgram@@@Z
    ?setUniforms@QGraphicsShaderEffect@@MEAAXPEAVQGLShaderProgram@@@Z
    ?setUniformsDirty@QGLCustomShaderStage@@QEAAXXZ
    ?setUniformsDirty@QGraphicsShaderEffect@@IEAAXXZ
    ?setUsagePattern@QGLBuffer@@QEAAXW4UsagePattern@1@@Z
    ?setValid@QGLContext@@IEAAX_N@Z
    ?setVersion@QGLFormat@@QEAAXHH@Z
    ?setWidget@QGLWidgetGLPaintDevice@@QEAAXPEAVQGLWidget@@@Z
    ?setWindowCreated@QGLContext@@IEAAX_N@Z
    ?shaderDestroyed@QGLShaderProgram@@AEAAXXZ
    ?shaderId@QGLShader@@QEBAIXZ
    ?shaderType@QGLShader@@QEBA?AV?$QFlags@W4ShaderTypeBit@QGLShader@@@@XZ
    ?shaders@QGLShaderProgram@@QEBA?AV?$QList@PEAVQGLShader@@@@XZ
    ?shadersForContext@QGLEngineSharedShaders@@SAPEAV1@PEBVQGLContext@@@Z
    ?shared_null@QGLColormap@@0UQGLColormapData@1@A
    ?shouldDrawCachedGlyphs@QGL2PaintEngineEx@@UEBA_NPEAVQFontEngine@@AEBVQTransform@@@Z
    ?simpleProgram@QGLEngineShaderManager@@QEAAPEAVQGLShaderProgram@@XZ
    ?simpleProgram@QGLEngineSharedShaders@@QEAAPEAVQGLShaderProgram@@XZ
    ?size@QGLBuffer@@QEBAHXZ
    ?size@QGLColormap@@QEBAHXZ
    ?size@QGLFramebufferObject@@QEBA?AVQSize@@XZ
    ?size@QGLPixelBuffer@@QEBA?AVQSize@@XZ
    ?size@QGLWidgetGLPaintDevice@@UEBA?AVQSize@@XZ
    ?source@QGLCustomShaderStage@@QEBA?AVQByteArray@@XZ
    ?sourceCode@QGLShader@@QEBA?AVQByteArray@@XZ
    ?state@QGL2PaintEngineEx@@QEAAPEAVQGL2PaintEngineState@@XZ
    ?state@QGL2PaintEngineEx@@QEBAPEBVQGL2PaintEngineState@@XZ
    ?staticMetaObject@QGLEngineShaderManager@@2UQMetaObject@@B
    ?staticMetaObject@QGLEngineSharedShaders@@2UQMetaObject@@B
    ?staticMetaObject@QGLShader@@2UQMetaObject@@B
    ?staticMetaObject@QGLShaderProgram@@2UQMetaObject@@B
    ?staticMetaObject@QGLSignalProxy@@2UQMetaObject@@B
    ?staticMetaObject@QGLWidget@@2UQMetaObject@@B
    ?staticMetaObject@QGraphicsShaderEffect@@2UQMetaObject@@B
    ?stencil@QGLFormat@@QEBA_NXZ
    ?stencilBufferSize@QGLFormat@@QEBAHXZ
    ?stereo@QGLFormat@@QEBA_NXZ
    ?stroke@QGL2PaintEngineEx@@UEAAXAEBVQVectorPath@@AEBVQPen@@@Z
    ?swapBuffers@QGLContext@@UEBAXXZ
    ?swapBuffers@QGLWidget@@QEAAXXZ
    ?swapInterval@QGLFormat@@QEBAHXZ
    ?testOption@QGLFormat@@QEBA_NV?$QFlags@W4FormatOption@QGL@@@@@Z
    ?texture@QGLFramebufferObject@@QEBAIXZ
    ?texture@QGLTextureGlyphCache@@QEBAIXZ
    ?textureCacheLimit@QGLContext@@SAHXZ
    ?textureTarget@QGLFramebufferObjectFormat@@QEBAIXZ
    ?toImage@QGLFramebufferObject@@QEBA?AVQImage@@XZ
    ?toImage@QGLPixelBuffer@@QEBA?AVQImage@@XZ
    ?toSurfaceFormat@QGLFormat@@SA?AVQSurfaceFormat@@AEBV1@@Z
    ?tr@QGLEngineShaderManager@@SA?AVQString@@PEBD0H@Z
    ?tr@QGLShader@@SA?AVQString@@PEBD0H@Z
    ?tr@QGLShaderProgram@@SA?AVQString@@PEBD0H@Z
    ?tr@QGLSignalProxy@@SA?AVQString@@PEBD0H@Z
    ?tr@QGLWidget@@SA?AVQString@@PEBD0H@Z
    ?tr@QGraphicsShaderEffect@@SA?AVQString@@PEBD0H@Z
    ?trUtf8@QGLEngineShaderManager@@SA?AVQString@@PEBD0H@Z
    ?trUtf8@QGLShader@@SA?AVQString@@PEBD0H@Z
    ?trUtf8@QGLShaderProgram@@SA?AVQString@@PEBD0H@Z
    ?trUtf8@QGLSignalProxy@@SA?AVQString@@PEBD0H@Z
    ?trUtf8@QGLWidget@@SA?AVQString@@PEBD0H@Z
    ?trUtf8@QGraphicsShaderEffect@@SA?AVQString@@PEBD0H@Z
    ?transformChanged@QGL2PaintEngineEx@@UEAAXXZ
    ?type@QGL2PaintEngineEx@@UEBA?AW4Type@QPaintEngine@@XZ
    ?type@QGLBuffer@@QEBA?AW4Type@1@XZ
    ?uniformLocation@QGLShaderProgram@@QEBAHAEBVQByteArray@@@Z
    ?uniformLocation@QGLShaderProgram@@QEBAHAEBVQString@@@Z
    ?uniformLocation@QGLShaderProgram@@QEBAHPEBD@Z
    ?unmap@QGLBuffer@@QEAA_NXZ
    ?updateDynamicTexture@QGLPixelBuffer@@QEBAXI@Z
    ?updateGL@QGLWidget@@UEAAXXZ
    ?updateOverlayGL@QGLWidget@@UEAAXXZ
    ?usagePattern@QGLBuffer@@QEBA?AW4UsagePattern@1@XZ
    ?useBlitProgram@QGLEngineShaderManager@@QEAAXXZ
    ?useCorrectShaderProg@QGLEngineShaderManager@@QEAA_NXZ
    ?useSimpleProgram@QGLEngineShaderManager@@QEAAXXZ
    ?width@QGLTextureGlyphCache@@QEBAHXZ
    ?windowCreated@QGLContext@@IEBA_NXZ
    ?write@QGLBuffer@@QEAAXHPEBXH@Z
